target datalayout = "e-m:e-p270:32:32-p271:32:32-p272:64:64-i64:64-i128:128-f80:128-n8:16:32:64-S128"
target triple = "x86_64-pc-linux-gnu"

%struct.archive_read = type { %struct.archive, ptr, i32, i64, i64, %struct.archive_read_client, [16 x %struct.archive_read_filter_bidder], ptr, i32, i64, i32, i32, [16 x %struct.archive_format_descriptor], ptr, ptr, ptr, %struct.anon }
%struct.archive = type { i32, i32, ptr, i32, ptr, i32, i32, ptr, %struct.archive_string, ptr, i32, i32, ptr, ptr, i64, i64, i64, i8, i64 }
%struct.archive_string = type { ptr, i64, i64 }
%struct.archive_read_client = type { ptr, ptr, ptr, ptr, ptr, ptr, i32, i32, i64, ptr }
%struct.archive_read_filter_bidder = type { ptr, ptr, ptr }
%struct.archive_format_descriptor = type { ptr, ptr, ptr, ptr, ptr, ptr, ptr, ptr, ptr, ptr, ptr }
%struct.anon = type { ptr, ptr, i32, ptr, ptr }
%struct._7zip = type { %struct._7z_stream_info, i32, i32, i64, i64, i64, i64, i64, i64, ptr, ptr, ptr, i64, i64, i64, i8, ptr, ptr, i64, i64, i64, i32, i64, i32, i32, i64, i64, i64, i64, %struct.lzma_stream, i32, %struct.bz_stream, i32, %struct.z_stream_s, i32, ptr, i32, i32, %struct.CPpmd7, %struct.CPpmd7z_RangeDec, %struct.IByteIn, %struct.anon.0, i32, i32, i64, [4 x i8], i64, i32, i32, i64, [3 x ptr], [3 x i64], [3 x i64], ptr, i64, i64, i64, [258 x i16], i8, i32, i32, i64, ptr, [64 x i8], i32 }
%struct._7z_stream_info = type { %struct._7z_pack_info, %struct._7z_coders_info, %struct._7z_substream_info }
%struct._7z_pack_info = type { i64, i64, ptr, %struct._7z_digests, ptr }
%struct._7z_digests = type { ptr, ptr }
%struct._7z_coders_info = type { i64, ptr, i64 }
%struct._7z_substream_info = type { i64, ptr, ptr, ptr }
%struct.lzma_stream = type { ptr, i64, i64, ptr, i64, i64, ptr, ptr, ptr, ptr, ptr, ptr, i64, i64, i64, i64, i32, i32 }
%struct.bz_stream = type { ptr, i32, i32, i32, ptr, i32, i32, i32, ptr, ptr, ptr, ptr }
%struct.z_stream_s = type { ptr, i32, i64, ptr, i32, i64, ptr, ptr, ptr, ptr, ptr, i32, i64, i64 }
%struct.CPpmd7 = type { ptr, ptr, ptr, i32, i32, i32, i32, i32, i32, i32, i32, i32, ptr, ptr, ptr, ptr, ptr, i32, [38 x i8], [128 x i8], [38 x i32], [256 x i8], [256 x i8], [256 x i8], %struct.CPpmd_See, [25 x [16 x %struct.CPpmd_See]], [128 x [64 x i16]] }
%struct.CPpmd_See = type { i16, i8, i8 }
%struct.CPpmd7z_RangeDec = type { %struct.IPpmd7_RangeDec, i32, i32, i32, i32, ptr }
%struct.IPpmd7_RangeDec = type { ptr, ptr, ptr }
%struct.IByteIn = type { ptr, ptr }
%struct.anon.0 = type { ptr, i64, i64, i64, ptr, i64, i64, i32 }

; Function Attrs: nounwind uwtable
define internal void @read_consume(ptr noundef %0) #0 {
  %2 = alloca ptr, align 8
  %3 = alloca ptr, align 8
  store ptr %0, ptr %2, align 8, !tbaa !9
  call void @llvm.lifetime.start.p0(i64 8, ptr %3) #12
  %4 = load ptr, ptr %2, align 8, !tbaa !9
  %5 = getelementptr inbounds nuw %struct.archive_read, ptr %4, i32 0, i32 13
  %6 = load ptr, ptr %5, align 8, !tbaa !51
  %7 = getelementptr inbounds nuw %struct.archive_format_descriptor, ptr %6, i32 0, i32 0
  %8 = load ptr, ptr %7, align 8, !tbaa !64
  store ptr %8, ptr %3, align 8, !tbaa !13
  %9 = load ptr, ptr %3, align 8, !tbaa !13
  %10 = getelementptr inbounds nuw %struct._7zip, ptr %9, i32 0, i32 26
  %11 = load i64, ptr %10, align 8, !tbaa !107
  %12 = icmp ne i64 %11, 0
  br i1 %12, label %13, label %28

13:                                               ; preds = %1
  %14 = load ptr, ptr %2, align 8, !tbaa !9
  %15 = load ptr, ptr %3, align 8, !tbaa !13
  %16 = getelementptr inbounds nuw %struct._7zip, ptr %15, i32 0, i32 26
  %17 = load i64, ptr %16, align 8, !tbaa !107
  %18 = call i64 @__archive_read_consume(ptr noundef %14, i64 noundef %17)
  %19 = load ptr, ptr %3, align 8, !tbaa !13
  %20 = getelementptr inbounds nuw %struct._7zip, ptr %19, i32 0, i32 26
  %21 = load i64, ptr %20, align 8, !tbaa !107
  %22 = load ptr, ptr %3, align 8, !tbaa !13
  %23 = getelementptr inbounds nuw %struct._7zip, ptr %22, i32 0, i32 20
  %24 = load i64, ptr %23, align 8, !tbaa !115
  %25 = add i64 %24, %21
  store i64 %25, ptr %23, align 8, !tbaa !115
  %26 = load ptr, ptr %3, align 8, !tbaa !13
  %27 = getelementptr inbounds nuw %struct._7zip, ptr %26, i32 0, i32 26
  store i64 0, ptr %27, align 8, !tbaa !107
  br label %28

28:                                               ; preds = %13, %1
  call void @llvm.lifetime.end.p0(i64 8, ptr %3) #12
  ret void
}

; Function Attrs: nounwind uwtable
define internal ptr @header_bytes(ptr noundef %0, i64 noundef %1) #0 {
  %3 = alloca ptr, align 8
  %4 = alloca ptr, align 8
  %5 = alloca i64, align 8
  %6 = alloca ptr, align 8
  %7 = alloca ptr, align 8
  %8 = alloca i32, align 4
  %9 = alloca ptr, align 8
  %10 = alloca i64, align 8
  store ptr %0, ptr %4, align 8, !tbaa !9
  store i64 %1, ptr %5, align 8, !tbaa !45
  call void @llvm.lifetime.start.p0(i64 8, ptr %6) #12
  %11 = load ptr, ptr %4, align 8, !tbaa !9
  %12 = getelementptr inbounds nuw %struct.archive_read, ptr %11, i32 0, i32 13
  %13 = load ptr, ptr %12, align 8, !tbaa !51
  %14 = getelementptr inbounds nuw %struct.archive_format_descriptor, ptr %13, i32 0, i32 0
  %15 = load ptr, ptr %14, align 8, !tbaa !64
  store ptr %15, ptr %6, align 8, !tbaa !13
  call void @llvm.lifetime.start.p0(i64 8, ptr %7) #12
  %16 = load ptr, ptr %6, align 8, !tbaa !13
  %17 = getelementptr inbounds nuw %struct._7zip, ptr %16, i32 0, i32 3
  %18 = load i64, ptr %17, align 8, !tbaa !117
  %19 = load i64, ptr %5, align 8, !tbaa !45
  %20 = icmp ult i64 %18, %19
  br i1 %20, label %21, label %22

21:                                               ; preds = %2
  store ptr null, ptr %3, align 8
  store i32 1, ptr %8, align 4
  br label %79

22:                                               ; preds = %2
  %23 = load ptr, ptr %6, align 8, !tbaa !13
  %24 = getelementptr inbounds nuw %struct._7zip, ptr %23, i32 0, i32 26
  %25 = load i64, ptr %24, align 8, !tbaa !107
  %26 = icmp ne i64 %25, 0
  br i1 %26, label %27, label %29

27:                                               ; preds = %22
  %28 = load ptr, ptr %4, align 8, !tbaa !9
  call void @read_consume(ptr noundef %28)
  br label %29

29:                                               ; preds = %27, %22
  %30 = load ptr, ptr %6, align 8, !tbaa !13
  %31 = getelementptr inbounds nuw %struct._7zip, ptr %30, i32 0, i32 2
  %32 = load i32, ptr %31, align 4, !tbaa !119
  %33 = icmp eq i32 %32, 0
  br i1 %33, label %34, label %50

34:                                               ; preds = %29
  %35 = load ptr, ptr %4, align 8, !tbaa !9
  %36 = load i64, ptr %5, align 8, !tbaa !45
  %37 = call ptr @__archive_read_ahead(ptr noundef %35, i64 noundef %36, ptr noundef null)
  store ptr %37, ptr %7, align 8, !tbaa !43
  %38 = load ptr, ptr %7, align 8, !tbaa !43
  %39 = icmp eq ptr %38, null
  br i1 %39, label %40, label %41

40:                                               ; preds = %34
  store ptr null, ptr %3, align 8
  store i32 1, ptr %8, align 4
  br label %79

41:                                               ; preds = %34
  %42 = load i64, ptr %5, align 8, !tbaa !45
  %43 = load ptr, ptr %6, align 8, !tbaa !13
  %44 = getelementptr inbounds nuw %struct._7zip, ptr %43, i32 0, i32 3
  %45 = load i64, ptr %44, align 8, !tbaa !117
  %46 = sub i64 %45, %42
  store i64 %46, ptr %44, align 8, !tbaa !117
  %47 = load i64, ptr %5, align 8, !tbaa !45
  %48 = load ptr, ptr %6, align 8, !tbaa !13
  %49 = getelementptr inbounds nuw %struct._7zip, ptr %48, i32 0, i32 26
  store i64 %47, ptr %49, align 8, !tbaa !107
  br label %68

50:                                               ; preds = %29
  call void @llvm.lifetime.start.p0(i64 8, ptr %9) #12
  call void @llvm.lifetime.start.p0(i64 8, ptr %10) #12
  %51 = load ptr, ptr %4, align 8, !tbaa !9
  %52 = load i64, ptr %5, align 8, !tbaa !45
  %53 = load i64, ptr %5, align 8, !tbaa !45
  %54 = call i64 @read_stream(ptr noundef %51, ptr noundef %9, i64 noundef %52, i64 noundef %53)
  store i64 %54, ptr %10, align 8, !tbaa !45
  %55 = load i64, ptr %10, align 8, !tbaa !45
  %56 = icmp sle i64 %55, 0
  br i1 %56, label %57, label %58

57:                                               ; preds = %50
  store ptr null, ptr %3, align 8
  store i32 1, ptr %8, align 4
  br label %65

58:                                               ; preds = %50
  %59 = load i64, ptr %10, align 8, !tbaa !45
  %60 = load ptr, ptr %6, align 8, !tbaa !13
  %61 = getelementptr inbounds nuw %struct._7zip, ptr %60, i32 0, i32 3
  %62 = load i64, ptr %61, align 8, !tbaa !117
  %63 = sub i64 %62, %59
  store i64 %63, ptr %61, align 8, !tbaa !117
  %64 = load ptr, ptr %9, align 8, !tbaa !103
  store ptr %64, ptr %7, align 8, !tbaa !43
  store i32 0, ptr %8, align 4
  br label %65

65:                                               ; preds = %58, %57
  call void @llvm.lifetime.end.p0(i64 8, ptr %10) #12
  call void @llvm.lifetime.end.p0(i64 8, ptr %9) #12
  %66 = load i32, ptr %8, align 4
  switch i32 %66, label %79 [
    i32 0, label %67
  ]

67:                                               ; preds = %65
  br label %68

68:                                               ; preds = %67, %41
  %69 = load ptr, ptr %6, align 8, !tbaa !13
  %70 = getelementptr inbounds nuw %struct._7zip, ptr %69, i32 0, i32 4
  %71 = load i64, ptr %70, align 8, !tbaa !118
  %72 = load ptr, ptr %7, align 8, !tbaa !43
  %73 = load i64, ptr %5, align 8, !tbaa !45
  %74 = trunc i64 %73 to i32
  %75 = call i64 @cm_zlib_crc32(i64 noundef %71, ptr noundef %72, i32 noundef %74)
  %76 = load ptr, ptr %6, align 8, !tbaa !13
  %77 = getelementptr inbounds nuw %struct._7zip, ptr %76, i32 0, i32 4
  store i64 %75, ptr %77, align 8, !tbaa !118
  %78 = load ptr, ptr %7, align 8, !tbaa !43
  store ptr %78, ptr %3, align 8
  store i32 1, ptr %8, align 4
  br label %79

79:                                               ; preds = %68, %65, %40, %21
  call void @llvm.lifetime.end.p0(i64 8, ptr %7) #12
  call void @llvm.lifetime.end.p0(i64 8, ptr %6) #12
  %80 = load ptr, ptr %3, align 8
  ret ptr %80
}