; Function Attrs: nounwind uwtable
define internal fastcc noundef ptr @header_bytes(ptr noundef %0, i64 noundef %1) unnamed_addr #0 {
  %3 = alloca ptr, align 8
  %4 = getelementptr inbounds nuw i8, ptr %0, i64 2072
  %5 = load ptr, ptr %4, align 8, !tbaa !41
  %6 = load ptr, ptr %5, align 8, !tbaa !55
  %7 = getelementptr inbounds nuw i8, ptr %6, i64 112
  %8 = load i64, ptr %7, align 8, !tbaa !65
  %9 = icmp ult i64 %8, %1
  br i1 %9, label %40, label %10

10:                                               ; preds = %2
  %11 = getelementptr inbounds nuw i8, ptr %6, i64 288
  %12 = load i64, ptr %11, align 8, !tbaa !74
  %.not = icmp eq i64 %12, 0
  br i1 %.not, label %18, label %read_consume.exit

read_consume.exit:                                ; preds = %10
  %13 = tail call i64 @__archive_read_consume(ptr noundef nonnull %0, i64 noundef %12) #17
  %14 = load i64, ptr %11, align 8, !tbaa !74
  %15 = getelementptr inbounds nuw i8, ptr %6, i64 248
  %16 = load i64, ptr %15, align 8, !tbaa !63
  %17 = add i64 %16, %14
  store i64 %17, ptr %15, align 8, !tbaa !63
  store i64 0, ptr %11, align 8, !tbaa !74
  br label %18

18:                                               ; preds = %read_consume.exit, %10
  %19 = getelementptr inbounds nuw i8, ptr %6, i64 108
  %20 = load i32, ptr %19, align 4, !tbaa !67
  %21 = icmp eq i32 %20, 0
  br i1 %21, label %22, label %28

22:                                               ; preds = %18
  %23 = tail call ptr @__archive_read_ahead(ptr noundef nonnull %0, i64 noundef %1, ptr noundef null) #17
  %24 = icmp eq ptr %23, null
  br i1 %24, label %40, label %25

25:                                               ; preds = %22
  %26 = load i64, ptr %7, align 8, !tbaa !65
  %27 = sub i64 %26, %1
  store i64 %27, ptr %7, align 8, !tbaa !65
  store i64 %1, ptr %11, align 8, !tbaa !74
  br label %35

28:                                               ; preds = %18
  call void @llvm.lifetime.start.p0(i64 8, ptr nonnull %3) #17
  %29 = call fastcc i64 @read_stream(ptr noundef nonnull %0, ptr noundef nonnull %3, i64 noundef %1, i64 noundef %1)
  %30 = icmp sgt i64 %29, 0
  br i1 %30, label %.thread, label %34

.thread:                                          ; preds = %28
  %31 = load i64, ptr %7, align 8, !tbaa !65
  %32 = sub i64 %31, %29
  store i64 %32, ptr %7, align 8, !tbaa !65
  %33 = load ptr, ptr %3, align 8, !tbaa !111
  call void @llvm.lifetime.end.p0(i64 8, ptr nonnull %3) #17
  br label %35

34:                                               ; preds = %28
  call void @llvm.lifetime.end.p0(i64 8, ptr nonnull %3) #17
  br label %40

35:                                               ; preds = %.thread, %25
  %.026 = phi ptr [ %23, %25 ], [ %33, %.thread ]
  %36 = getelementptr inbounds nuw i8, ptr %6, i64 120
  %37 = load i64, ptr %36, align 8, !tbaa !66
  %38 = trunc i64 %1 to i32
  %39 = tail call i64 @cm_zlib_crc32(i64 noundef %37, ptr noundef %.026, i32 noundef %38) #17
  store i64 %39, ptr %36, align 8, !tbaa !66
  br label %40

40:                                               ; preds = %34, %22, %2, %35
  %.0 = phi ptr [ %.026, %35 ], [ null, %34 ], [ null, %2 ], [ null, %22 ]
  ret ptr %.0
}